target datalayout = "e-m:e-p270:32:32-p271:32:32-p272:64:64-i64:64-i128:128-f80:128-n8:16:32:64-S128"
target triple = "x86_64-pc-linux-gnu"

%struct._zval_struct = type { %union._zend_value, %union.anon, %union.anon.2 }
%union._zend_value = type { i64 }
%union.anon = type { i32 }
%union.anon.2 = type { i32 }
%struct._phpdbg_param = type { i32, i64, i64, %struct.anon.18, %struct.anon.19, ptr, i64, ptr, ptr }
%struct.anon.18 = type { ptr, i64 }
%struct.anon.19 = type { ptr, ptr }
%struct._phpdbg_breakcond_t = type { i32, i8, i64, i8, ptr, i64, i8, %struct._phpdbg_param, i64, ptr }

; Function Attrs: nounwind uwtable
define internal void @php_phpdbg_destroy_bp_condition(ptr noundef %0) #0 {
  %2 = alloca ptr, align 8
  %3 = alloca ptr, align 8
  store ptr %0, ptr %2, align 8, !tbaa !9
  call void @llvm.lifetime.start.p0(i64 8, ptr %3) #22
  %4 = load ptr, ptr %2, align 8, !tbaa !9
  %5 = getelementptr inbounds nuw %struct._zval_struct, ptr %4, i32 0, i32 0
  %6 = load ptr, ptr %5, align 8, !tbaa !11
  store ptr %6, ptr %3, align 8, !tbaa !285
  %7 = load ptr, ptr %3, align 8, !tbaa !285
  %8 = getelementptr inbounds nuw %struct._phpdbg_breakcond_t, ptr %7, i32 0, i32 9
  %9 = load ptr, ptr %8, align 8, !tbaa !287
  %10 = icmp ne ptr %9, null
  br i1 %10, label %11, label %18

11:                                               ; preds = %1
  %12 = load ptr, ptr %3, align 8, !tbaa !285
  %13 = getelementptr inbounds nuw %struct._phpdbg_breakcond_t, ptr %12, i32 0, i32 9
  %14 = load ptr, ptr %13, align 8, !tbaa !287
  call void @destroy_op_array(ptr noundef %14)
  %15 = load ptr, ptr %3, align 8, !tbaa !285
  %16 = getelementptr inbounds nuw %struct._phpdbg_breakcond_t, ptr %15, i32 0, i32 9
  %17 = load ptr, ptr %16, align 8, !tbaa !287
  call void @_efree(ptr noundef %17)
  br label %18

18:                                               ; preds = %11, %1
  %19 = load ptr, ptr %3, align 8, !tbaa !285
  %20 = getelementptr inbounds nuw %struct._phpdbg_breakcond_t, ptr %19, i32 0, i32 4
  %21 = load ptr, ptr %20, align 8, !tbaa !289
  call void @_efree(ptr noundef %21)
  %22 = load ptr, ptr %3, align 8, !tbaa !285
  call void @_efree(ptr noundef %22)
  call void @llvm.lifetime.end.p0(i64 8, ptr %3) #22
  ret void
}