; Function Attrs: nounwind uwtable
define internal void @php_phpdbg_destroy_bp_condition(ptr noundef readonly captures(none) %0) #0 {
  %2 = load ptr, ptr %0, align 8, !tbaa !4
  %3 = getelementptr inbounds nuw i8, ptr %2, i64 144
  %4 = load ptr, ptr %3, align 8, !tbaa !262
  %.not = icmp eq ptr %4, null
  br i1 %.not, label %7, label %5

5:                                                ; preds = %1
  tail call void @destroy_op_array(ptr noundef nonnull %4) #27
  %6 = load ptr, ptr %3, align 8, !tbaa !262
  tail call void @_efree(ptr noundef %6) #27
  br label %7

7:                                                ; preds = %5, %1
  %8 = getelementptr inbounds nuw i8, ptr %2, i64 24
  %9 = load ptr, ptr %8, align 8, !tbaa !264
  tail call void @_efree(ptr noundef %9) #27
  tail call void @_efree(ptr noundef nonnull %2) #27
  ret void
}